target datalayout = "e-m:e-p270:32:32-p271:32:32-p272:64:64-i64:64-i128:128-f80:128-n8:16:32:64-S128"
target triple = "x86_64-pc-linux-gnu"

%struct.RelationData = type { %struct.RelFileLocator, ptr, i32, i32, i8, i8, i8, i8, i8, i32, i32, i32, i32, ptr, ptr, i32, %struct.LockInfoData, ptr, ptr, ptr, ptr, ptr, i8, ptr, ptr, ptr, ptr, ptr, ptr, i32, ptr, i8, ptr, ptr, i32, i8, i32, ptr, i8, ptr, ptr, ptr, ptr, ptr, ptr, ptr, i32, ptr, ptr, ptr, ptr, ptr, ptr, ptr, ptr, ptr, ptr, ptr, ptr, ptr, ptr, ptr, ptr, ptr, ptr, ptr, i32, i8, ptr }
%struct.RelFileLocator = type { i32, i32, i32 }
%struct.LockInfoData = type { %struct.LockRelId }
%struct.LockRelId = type { i32, i32 }
%struct.MemoryContextData = type { i32, i8, i8, i64, ptr, ptr, ptr, ptr, ptr, ptr, ptr, ptr }

; Function Attrs: nounwind uwtable
define internal void @RelationCloseCleanup(ptr noundef %0) #0 {
  %2 = alloca ptr, align 8
  store ptr %0, ptr %2, align 8
  %3 = load ptr, ptr %2, align 8
  %4 = getelementptr inbounds nuw %struct.RelationData, ptr %3, i32 0, i32 2
  %5 = load i32, ptr %4, align 8
  %6 = icmp eq i32 %5, 0
  br i1 %6, label %7, label %40

7:                                                ; preds = %1
  %8 = load ptr, ptr %2, align 8
  %9 = getelementptr inbounds nuw %struct.RelationData, ptr %8, i32 0, i32 26
  %10 = load ptr, ptr %9, align 8
  %11 = icmp ne ptr %10, null
  br i1 %11, label %12, label %23

12:                                               ; preds = %7
  %13 = load ptr, ptr %2, align 8
  %14 = getelementptr inbounds nuw %struct.RelationData, ptr %13, i32 0, i32 26
  %15 = load ptr, ptr %14, align 8
  %16 = getelementptr inbounds nuw %struct.MemoryContextData, ptr %15, i32 0, i32 6
  %17 = load ptr, ptr %16, align 8
  %18 = icmp ne ptr %17, null
  br i1 %18, label %19, label %23

19:                                               ; preds = %12
  %20 = load ptr, ptr %2, align 8
  %21 = getelementptr inbounds nuw %struct.RelationData, ptr %20, i32 0, i32 26
  %22 = load ptr, ptr %21, align 8
  call void @MemoryContextDeleteChildren(ptr noundef %22)
  br label %23

23:                                               ; preds = %19, %12, %7
  %24 = load ptr, ptr %2, align 8
  %25 = getelementptr inbounds nuw %struct.RelationData, ptr %24, i32 0, i32 28
  %26 = load ptr, ptr %25, align 8
  %27 = icmp ne ptr %26, null
  br i1 %27, label %28, label %39

28:                                               ; preds = %23
  %29 = load ptr, ptr %2, align 8
  %30 = getelementptr inbounds nuw %struct.RelationData, ptr %29, i32 0, i32 28
  %31 = load ptr, ptr %30, align 8
  %32 = getelementptr inbounds nuw %struct.MemoryContextData, ptr %31, i32 0, i32 6
  %33 = load ptr, ptr %32, align 8
  %34 = icmp ne ptr %33, null
  br i1 %34, label %35, label %39

35:                                               ; preds = %28
  %36 = load ptr, ptr %2, align 8
  %37 = getelementptr inbounds nuw %struct.RelationData, ptr %36, i32 0, i32 28
  %38 = load ptr, ptr %37, align 8
  call void @MemoryContextDeleteChildren(ptr noundef %38)
  br label %39

39:                                               ; preds = %35, %28, %23
  br label %40

40:                                               ; preds = %39, %1
  ret void
}

; Function Attrs: inlinehint nounwind uwtable
define internal ptr @DatumGetPointer(i64 noundef %0) #3 {
  %2 = alloca i64, align 8
  store i64 %0, ptr %2, align 8
  %3 = load i64, ptr %2, align 8
  %4 = inttoptr i64 %3 to ptr
  ret ptr %4
}

; Function Attrs: nounwind uwtable
define internal void @ResOwnerReleaseRelation(i64 noundef %0) #0 {
  %2 = alloca i64, align 8
  %3 = alloca ptr, align 8
  store i64 %0, ptr %2, align 8
  call void @llvm.lifetime.start.p0(i64 8, ptr %3) #11
  %4 = load i64, ptr %2, align 8
  %5 = call ptr @DatumGetPointer(i64 noundef %4)
  store ptr %5, ptr %3, align 8
  %6 = load ptr, ptr %3, align 8
  %7 = getelementptr inbounds nuw %struct.RelationData, ptr %6, i32 0, i32 2
  %8 = load i32, ptr %7, align 8
  %9 = sub i32 %8, 1
  store i32 %9, ptr %7, align 8
  %10 = load i64, ptr %2, align 8
  %11 = inttoptr i64 %10 to ptr
  call void @RelationCloseCleanup(ptr noundef %11)
  call void @llvm.lifetime.end.p0(i64 8, ptr %3) #11
  ret void
}