; Function Attrs: nounwind uwtable
define internal void @ResOwnerReleaseRelation(i64 noundef %0) #0 {
  %2 = inttoptr i64 %0 to ptr
  %3 = getelementptr inbounds nuw i8, ptr %2, i64 24
  %4 = load i32, ptr %3, align 8
  %5 = add i32 %4, -1
  store i32 %5, ptr %3, align 8
  %6 = icmp eq i32 %5, 0
  br i1 %6, label %7, label %RelationCloseCleanup.exit

7:                                                ; preds = %1
  %8 = getelementptr inbounds nuw i8, ptr %2, i64 160
  %9 = load ptr, ptr %8, align 8
  %.not.i = icmp eq ptr %9, null
  br i1 %.not.i, label %14, label %10

10:                                               ; preds = %7
  %11 = getelementptr inbounds nuw i8, ptr %9, i64 32
  %12 = load ptr, ptr %11, align 8
  %.not8.i = icmp eq ptr %12, null
  br i1 %.not8.i, label %14, label %13

13:                                               ; preds = %10
  tail call void @MemoryContextDeleteChildren(ptr noundef nonnull %9) #13
  br label %14

14:                                               ; preds = %13, %10, %7
  %15 = getelementptr inbounds nuw i8, ptr %2, i64 176
  %16 = load ptr, ptr %15, align 8
  %.not9.i = icmp eq ptr %16, null
  br i1 %.not9.i, label %RelationCloseCleanup.exit, label %17

17:                                               ; preds = %14
  %18 = getelementptr inbounds nuw i8, ptr %16, i64 32
  %19 = load ptr, ptr %18, align 8
  %.not10.i = icmp eq ptr %19, null
  br i1 %.not10.i, label %RelationCloseCleanup.exit, label %20

20:                                               ; preds = %17
  tail call void @MemoryContextDeleteChildren(ptr noundef nonnull %16) #13
  br label %RelationCloseCleanup.exit

RelationCloseCleanup.exit:                        ; preds = %1, %14, %17, %20
  ret void
}